target datalayout = "e-m:e-p270:32:32-p271:32:32-p272:64:64-i64:64-i128:128-f80:128-n8:16:32:64-S128"
target triple = "x86_64-pc-linux-gnu"

%struct.AVFormatContext = type { ptr, ptr, ptr, ptr, ptr, i32, i32, ptr, i32, ptr, i32, ptr, ptr, i64, i64, i64, i32, i32, i32, i64, i64, ptr, i32, i32, ptr, i32, i32, i32, i32, ptr, i64, i32, i32, %struct.AVIOInterruptCB, i32, i32, i32, i32, i64, i32, i32, i32, i32, i32, i32, i32, i32, i32, i32, i32, i32, i64, i32, i32, i32, i32, i32, ptr, ptr, ptr, ptr, i32, ptr, ptr, ptr, ptr, i32, ptr, ptr, i64, ptr, ptr, ptr, i64 }
%struct.AVIOInterruptCB = type { ptr, ptr }
%struct.AVStream = type { ptr, i32, i32, ptr, ptr, %struct.AVRational, i64, i64, i64, i32, i32, %struct.AVRational, ptr, %struct.AVRational, %struct.AVPacket, i32, %struct.AVRational, i32 }
%struct.AVPacket = type { ptr, i64, i64, ptr, i32, i32, i32, ptr, i32, i64, i64, ptr, ptr, %struct.AVRational }
%struct.AVRational = type { i32, i32 }
%struct.AVCodecParameters = type { i32, i32, i32, ptr, i32, ptr, i32, i32, i64, i32, i32, i32, i32, i32, i32, %struct.AVRational, %struct.AVRational, i32, i32, i32, i32, i32, i32, i32, %struct.AVChannelLayout, i32, i32, i32, i32, i32, i32 }
%struct.AVChannelLayout = type { i32, i32, %union.anon, ptr }
%union.anon = type { i64 }

; Function Attrs: nounwind uwtable
define internal i32 @kvag_write_header(ptr noundef %0) #0 {
  %2 = alloca ptr, align 8
  %3 = alloca [14 x i8], align 1
  %4 = alloca ptr, align 8
  store ptr %0, ptr %2, align 8, !tbaa !14
  call void @llvm.lifetime.start.p0(i64 14, ptr %3) #4
  call void @llvm.lifetime.start.p0(i64 8, ptr %4) #4
  %5 = load ptr, ptr %2, align 8, !tbaa !14
  %6 = getelementptr inbounds nuw %struct.AVFormatContext, ptr %5, i32 0, i32 7
  %7 = load ptr, ptr %6, align 8, !tbaa !62
  %8 = getelementptr inbounds ptr, ptr %7, i64 0
  %9 = load ptr, ptr %8, align 8, !tbaa !16
  %10 = getelementptr inbounds nuw %struct.AVStream, ptr %9, i32 0, i32 3
  %11 = load ptr, ptr %10, align 8, !tbaa !40
  store ptr %11, ptr %4, align 8, !tbaa !47
  %12 = getelementptr inbounds [14 x i8], ptr %3, i64 0, i64 0
  %13 = getelementptr inbounds i8, ptr %12, i64 0
  store i32 1195464267, ptr %13, align 1, !tbaa !13
  %14 = getelementptr inbounds [14 x i8], ptr %3, i64 0, i64 0
  %15 = getelementptr inbounds i8, ptr %14, i64 4
  store i32 0, ptr %15, align 1, !tbaa !13
  %16 = load ptr, ptr %4, align 8, !tbaa !47
  %17 = getelementptr inbounds nuw %struct.AVCodecParameters, ptr %16, i32 0, i32 25
  %18 = load i32, ptr %17, align 8, !tbaa !53
  %19 = getelementptr inbounds [14 x i8], ptr %3, i64 0, i64 0
  %20 = getelementptr inbounds i8, ptr %19, i64 8
  store i32 %18, ptr %20, align 1, !tbaa !13
  %21 = load ptr, ptr %4, align 8, !tbaa !47
  %22 = getelementptr inbounds nuw %struct.AVCodecParameters, ptr %21, i32 0, i32 24
  %23 = getelementptr inbounds nuw %struct.AVChannelLayout, ptr %22, i32 0, i32 1
  %24 = load i32, ptr %23, align 4, !tbaa !56
  %25 = icmp eq i32 %24, 2
  %26 = zext i1 %25 to i32
  %27 = trunc i32 %26 to i16
  %28 = getelementptr inbounds [14 x i8], ptr %3, i64 0, i64 0
  %29 = getelementptr inbounds i8, ptr %28, i64 12
  store i16 %27, ptr %29, align 1, !tbaa !13
  %30 = load ptr, ptr %2, align 8, !tbaa !14
  %31 = getelementptr inbounds nuw %struct.AVFormatContext, ptr %30, i32 0, i32 4
  %32 = load ptr, ptr %31, align 8, !tbaa !18
  %33 = getelementptr inbounds [14 x i8], ptr %3, i64 0, i64 0
  call void @avio_write(ptr noundef %32, ptr noundef %33, i32 noundef 14)
  call void @llvm.lifetime.end.p0(i64 8, ptr %4) #4
  call void @llvm.lifetime.end.p0(i64 14, ptr %3) #4
  ret i32 0
}