; Function Attrs: nounwind uwtable
define internal noundef i32 @kvag_write_header(ptr noundef readonly captures(none) %0) #1 {
  %2 = alloca [14 x i8], align 4
  call void @llvm.lifetime.start.p0(i64 14, ptr nonnull %2) #4
  %3 = getelementptr inbounds nuw i8, ptr %0, i64 48
  %4 = load ptr, ptr %3, align 8, !tbaa !46
  %5 = load ptr, ptr %4, align 8, !tbaa !47
  %6 = getelementptr inbounds nuw i8, ptr %5, i64 16
  %7 = load ptr, ptr %6, align 8, !tbaa !27
  store i32 1195464267, ptr %2, align 4, !tbaa !11
  %8 = getelementptr inbounds nuw i8, ptr %2, i64 4
  store i32 0, ptr %8, align 4, !tbaa !11
  %9 = getelementptr inbounds nuw i8, ptr %7, i64 152
  %10 = load i32, ptr %9, align 8, !tbaa !39
  %11 = getelementptr inbounds nuw i8, ptr %2, i64 8
  store i32 %10, ptr %11, align 4, !tbaa !11
  %12 = getelementptr inbounds nuw i8, ptr %7, i64 132
  %13 = load i32, ptr %12, align 4, !tbaa !42
  %14 = icmp eq i32 %13, 2
  %15 = zext i1 %14 to i16
  %16 = getelementptr inbounds nuw i8, ptr %2, i64 12
  store i16 %15, ptr %16, align 4, !tbaa !11
  %17 = getelementptr inbounds nuw i8, ptr %0, i64 32
  %18 = load ptr, ptr %17, align 8, !tbaa !12
  call void @avio_write(ptr noundef %18, ptr noundef nonnull %2, i32 noundef 14) #4
  call void @llvm.lifetime.end.p0(i64 14, ptr nonnull %2) #4
  ret i32 0
}